; Function Attrs: nounwind uwtable
define ptr @l_Lean_Loop_forIn_loop___at___private_Lean_Meta_Instances_0__Lean_Meta_computeSynthOrder___spec__7___lambda__2(ptr noundef %0, ptr noundef %1, ptr noundef %2, ptr noundef readnone captures(none) %3, ptr noundef %4, ptr noundef %5, ptr noundef %6, ptr noundef %7, ptr noundef %8) local_unnamed_addr #1 {
  %10 = load ptr, ptr @l_instInhabitedNat, align 8, !tbaa !9
  %11 = getelementptr i8, ptr %0, i64 8
  %.val.i = load i64, ptr %11, align 8, !tbaa !12
  %.not = icmp eq i64 %.val.i, 0
  br i1 %.not, label %lean_array_uget.exit.i, label %12

12:                                               ; preds = %9
  %13 = ptrtoint ptr %10 to i64
  %14 = and i64 %13, 1
  %.not14.i = icmp eq i64 %14, 0
  br i1 %.not14.i, label %15, label %lean_dec.exit.i

15:                                               ; preds = %12
  %16 = load i32, ptr %10, align 4, !tbaa !4
  %17 = icmp sgt i32 %16, 1
  br i1 %17, label %18, label %20, !prof !11

18:                                               ; preds = %15
  %19 = add nsw i32 %16, -1
  store i32 %19, ptr %10, align 4, !tbaa !4
  br label %lean_dec.exit.i

20:                                               ; preds = %15
  %.not.i.i = icmp eq i32 %16, 0
  br i1 %.not.i.i, label %lean_dec.exit.i, label %21

21:                                               ; preds = %20
  tail call void @lean_dec_ref_cold(ptr noundef nonnull %10) #6
  br label %lean_dec.exit.i

lean_dec.exit.i:                                  ; preds = %21, %20, %18, %12
  %22 = getelementptr inbounds nuw i8, ptr %0, i64 24
  %23 = load ptr, ptr %22, align 8, !tbaa !9
  %24 = ptrtoint ptr %23 to i64
  %25 = and i64 %24, 1
  %.not.i11.i = icmp eq i64 %25, 0
  br i1 %.not.i11.i, label %26, label %lean_array_get.exit

26:                                               ; preds = %lean_dec.exit.i
  %.val.i.i.i = load i32, ptr %23, align 4, !tbaa !4
  %27 = icmp sgt i32 %.val.i.i.i, 0
  br i1 %27, label %28, label %30, !prof !11

28:                                               ; preds = %26
  %29 = add nuw i32 %.val.i.i.i, 1
  store i32 %29, ptr %23, align 4, !tbaa !4
  br label %lean_array_get.exit

30:                                               ; preds = %26
  %.not.i.i.i = icmp eq i32 %.val.i.i.i, 0
  br i1 %.not.i.i.i, label %lean_array_get.exit, label %31

31:                                               ; preds = %30
  tail call void @lean_inc_ref_cold(ptr noundef nonnull %23) #6
  br label %lean_array_get.exit

lean_array_uget.exit.i:                           ; preds = %9
  %32 = tail call ptr @lean_array_get_panic(ptr noundef %10) #6
  br label %lean_array_get.exit

lean_array_get.exit:                              ; preds = %lean_dec.exit.i, %28, %30, %31, %lean_array_uget.exit.i
  %.1.i = phi ptr [ %32, %lean_array_uget.exit.i ], [ %23, %31 ], [ %23, %30 ], [ %23, %28 ], [ %23, %lean_dec.exit.i ]
  %33 = tail call ptr @lean_apply_8(ptr noundef %1, ptr noundef %2, ptr noundef nonnull %0, ptr noundef %.1.i, ptr noundef %4, ptr noundef %5, ptr noundef %6, ptr noundef %7, ptr noundef %8) #6
  ret ptr %33
}